; Function Attrs: nounwind uwtable
define dso_local ptr @mkpathdup(ptr noundef %0, ...) local_unnamed_addr #3 {
  %2 = alloca %struct.strbuf, align 8
  %3 = alloca [1 x %struct.__va_list_tag], align 16
  call void @llvm.lifetime.start.p0(i64 24, ptr nonnull %2) #29
  call void @llvm.memcpy.p0.p0.i64(ptr noundef nonnull align 8 dereferenceable(24) %2, ptr noundef nonnull align 8 dereferenceable(24) @__const.do_submodule_path.git_submodule_dir, i64 24, i1 false)
  call void @llvm.lifetime.start.p0(i64 24, ptr nonnull %3) #29
  call void @llvm.va_start.p0(ptr nonnull %3)
  call void @strbuf_vaddf(ptr noundef nonnull %2, ptr noundef %0, ptr noundef nonnull %3) #29
  call void @llvm.va_end.p0(ptr nonnull %3)
  %4 = getelementptr inbounds nuw i8, ptr %2, i64 16
  %5 = load ptr, ptr %4, align 8, !tbaa !13
  %scevgep.i.i = getelementptr i8, ptr %5, i64 2
  br label %6

6:                                                ; preds = %7, %1
  %.07.i.i.i = phi ptr [ %5, %1 ], [ %9, %7 ]
  %.06.i.idx.i.i = phi i64 [ 0, %1 ], [ %.06.i.add.i.i, %7 ]
  %exitcond.i.i = icmp eq i64 %.06.i.idx.i.i, 2
  br i1 %exitcond.i.i, label %skip_prefix.exit.i.i, label %7

7:                                                ; preds = %6
  %.06.i.ptr.i.i = getelementptr inbounds nuw i8, ptr @.str.11, i64 %.06.i.idx.i.i
  %8 = load i8, ptr %.06.i.ptr.i.i, align 1, !tbaa !14
  %9 = getelementptr inbounds nuw i8, ptr %.07.i.i.i, i64 1
  %10 = load i8, ptr %.07.i.i.i, align 1, !tbaa !14
  %.06.i.add.i.i = add nuw nsw i64 %.06.i.idx.i.i, 1
  %11 = icmp eq i8 %10, %8
  br i1 %11, label %6, label %strbuf_cleanup_path.exit, !llvm.loop !66

skip_prefix.exit.i.i:                             ; preds = %6, %skip_prefix.exit.i.i
  %.1.i.i = phi ptr [ %14, %skip_prefix.exit.i.i ], [ %scevgep.i.i, %6 ]
  %12 = load i8, ptr %.1.i.i, align 1, !tbaa !14
  %13 = icmp eq i8 %12, 47
  %14 = getelementptr inbounds nuw i8, ptr %.1.i.i, i64 1
  br i1 %13, label %skip_prefix.exit.i.i, label %cleanup_path.exit.i, !llvm.loop !67

cleanup_path.exit.i:                              ; preds = %skip_prefix.exit.i.i
  %15 = icmp ugt ptr %.1.i.i, %5
  br i1 %15, label %16, label %strbuf_cleanup_path.exit

16:                                               ; preds = %cleanup_path.exit.i
  %17 = ptrtoint ptr %.1.i.i to i64
  %18 = ptrtoint ptr %5 to i64
  %19 = sub i64 %17, %18
  call void @strbuf_remove(ptr noundef nonnull %2, i64 noundef 0, i64 noundef %19) #29
  br label %strbuf_cleanup_path.exit

strbuf_cleanup_path.exit:                         ; preds = %7, %cleanup_path.exit.i, %16
  %20 = call ptr @strbuf_detach(ptr noundef nonnull %2, ptr noundef null) #29
  call void @llvm.lifetime.end.p0(i64 24, ptr nonnull %3) #29
  call void @llvm.lifetime.end.p0(i64 24, ptr nonnull %2) #29
  ret ptr %20
}